target datalayout = "e-m:e-p270:32:32-p271:32:32-p272:64:64-i64:64-i128:128-f80:128-n8:16:32:64-S128"
target triple = "x86_64-pc-linux-gnu"

%struct.Fra_Par_t_ = type { i32, double, i32, i32, double, double, i32, i32, i32, i32, i32, i32, i32, i32, i32, i32, i32, i32, i32, i32, i32, i32, i32, i32, i32 }

; Function Attrs: nounwind uwtable
define ptr @Fra_FraigChoice(ptr noundef %0, i32 noundef %1, i32 noundef %2) #0 {
  %4 = alloca ptr, align 8
  %5 = alloca i32, align 4
  %6 = alloca i32, align 4
  %7 = alloca %struct.Fra_Par_t_, align 8
  %8 = alloca ptr, align 8
  store ptr %0, ptr %4, align 8, !tbaa !3
  store i32 %1, ptr %5, align 4, !tbaa !8
  store i32 %2, ptr %6, align 4, !tbaa !8
  call void @llvm.lifetime.start.p0(i64 120, ptr %7) #7
  call void @llvm.lifetime.start.p0(i64 8, ptr %8) #7
  store ptr %7, ptr %8, align 8, !tbaa !89
  %9 = load ptr, ptr %8, align 8, !tbaa !89
  call void @Fra_ParamsDefault(ptr noundef %9)
  %10 = load i32, ptr %5, align 4, !tbaa !8
  %11 = load ptr, ptr %8, align 8, !tbaa !89
  %12 = getelementptr inbounds nuw %struct.Fra_Par_t_, ptr %11, i32 0, i32 12
  store i32 %10, ptr %12, align 8, !tbaa !75
  %13 = load ptr, ptr %8, align 8, !tbaa !89
  %14 = getelementptr inbounds nuw %struct.Fra_Par_t_, ptr %13, i32 0, i32 6
  store i32 1, ptr %14, align 8, !tbaa !99
  %15 = load ptr, ptr %8, align 8, !tbaa !89
  %16 = getelementptr inbounds nuw %struct.Fra_Par_t_, ptr %15, i32 0, i32 10
  store i32 1, ptr %16, align 8, !tbaa !81
  %17 = load ptr, ptr %8, align 8, !tbaa !89
  %18 = getelementptr inbounds nuw %struct.Fra_Par_t_, ptr %17, i32 0, i32 7
  store i32 0, ptr %18, align 4, !tbaa !84
  %19 = load ptr, ptr %8, align 8, !tbaa !89
  %20 = getelementptr inbounds nuw %struct.Fra_Par_t_, ptr %19, i32 0, i32 8
  store i32 0, ptr %20, align 8, !tbaa !105
  %21 = load ptr, ptr %8, align 8, !tbaa !89
  %22 = getelementptr inbounds nuw %struct.Fra_Par_t_, ptr %21, i32 0, i32 9
  store i32 0, ptr %22, align 4, !tbaa !96
  %23 = load ptr, ptr %8, align 8, !tbaa !89
  %24 = getelementptr inbounds nuw %struct.Fra_Par_t_, ptr %23, i32 0, i32 24
  store i32 1, ptr %24, align 8, !tbaa !106
  %25 = load i32, ptr %6, align 4, !tbaa !8
  %26 = load ptr, ptr %8, align 8, !tbaa !89
  %27 = getelementptr inbounds nuw %struct.Fra_Par_t_, ptr %26, i32 0, i32 14
  store i32 %25, ptr %27, align 8, !tbaa !78
  %28 = load ptr, ptr %4, align 8, !tbaa !3
  %29 = load ptr, ptr %8, align 8, !tbaa !89
  %30 = call ptr @Fra_FraigPerform(ptr noundef %28, ptr noundef %29)
  call void @llvm.lifetime.end.p0(i64 8, ptr %8) #7
  call void @llvm.lifetime.end.p0(i64 120, ptr %7) #7
  ret ptr %30
}